target datalayout = "e-m:e-p270:32:32-p271:32:32-p272:64:64-i64:64-i128:128-f80:128-n8:16:32:64-S128"
target triple = "x86_64-pc-linux-gnu"

%class.XPageCache = type { %class.XValue, %class.XList, %class.XList, i64 }
%class.XValue = type { i64 }
%class.XList = type { %class.XListNode, i64 }
%class.XListNode = type { ptr, ptr }
%class.XValueIterator = type <{ ptr, i32, [4 x i8] }>

@_ZN13XValueStorageI15XPerNUMAStorageE4_topE = linkonce_odr hidden global i64 0, comdat, align 8
@_ZN13XValueStorageI15XPerNUMAStorageE4_endE = linkonce_odr hidden global i64 0, comdat, align 8

; Function Attrs: mustprogress nounwind uwtable
define linkonce_odr hidden noundef i64 @_ZNK6XValueI15XPerNUMAStorage5XListI5XPageEE10value_addrEj(ptr noundef nonnull align 8 dereferenceable(8) %0, i32 noundef %1) #1 comdat align 2 {
  %3 = alloca ptr, align 8
  %4 = alloca i32, align 4
  store ptr %0, ptr %3, align 8
  store i32 %1, ptr %4, align 4
  %5 = load ptr, ptr %3, align 8
  %6 = getelementptr inbounds %class.XValue, ptr %5, i32 0, i32 0
  %7 = load i64, ptr %6, align 8
  %8 = load i32, ptr %4, align 4
  %9 = zext i32 %8 to i64
  %10 = mul i64 %9, 4096
  %11 = add i64 %7, %10
  ret i64 %11
}

; Function Attrs: mustprogress nounwind uwtable
define linkonce_odr hidden noundef i64 @_Z10align_downImmTnNSt9enable_ifIXcvbsr3std11is_integralIT_EE5valueEiE4typeELi0EES1_S1_T0_(i64 noundef %0, i64 noundef %1) #1 comdat {
  %3 = alloca i64, align 8
  %4 = alloca i64, align 8
  %5 = alloca i64, align 8
  store i64 %0, ptr %3, align 8
  store i64 %1, ptr %4, align 8
  %6 = load i64, ptr %3, align 8
  %7 = load i64, ptr %4, align 8
  %8 = call noundef i64 @_ZL14alignment_maskImTnNSt9enable_ifIXcvbsr3std11is_integralIT_EE5valueEiE4typeELi0EES1_S1_(i64 noundef %7)
  %9 = xor i64 %8, -1
  %10 = and i64 %6, %9
  store i64 %10, ptr %5, align 8
  %11 = load i64, ptr %5, align 8
  ret i64 %11
}

; Function Attrs: mustprogress nounwind uwtable
define linkonce_odr hidden noundef i64 @_Z12checked_castImmET_T0_(i64 noundef %0) #1 comdat {
  %2 = alloca i64, align 8
  %3 = alloca i64, align 8
  store i64 %0, ptr %2, align 8
  %4 = load i64, ptr %2, align 8
  store i64 %4, ptr %3, align 8
  %5 = load i64, ptr %3, align 8
  ret i64 %5
}

; Function Attrs: mustprogress nounwind uwtable
define internal noundef i64 @_ZL14alignment_maskImTnNSt9enable_ifIXcvbsr3std11is_integralIT_EE5valueEiE4typeELi0EES1_S1_(i64 noundef %0) #1 {
  %2 = alloca i64, align 8
  store i64 %0, ptr %2, align 8
  %3 = load i64, ptr %2, align 8
  %4 = sub i64 %3, 1
  ret i64 %4
}

; Function Attrs: mustprogress nounwind uwtable
define linkonce_odr hidden void @_ZNK9XListNodeI5XPageE12verify_linksEv(ptr noundef nonnull align 8 dereferenceable(16) %0) #1 comdat align 2 {
  %2 = alloca ptr, align 8
  store ptr %0, ptr %2, align 8
  ret void
}

; Function Attrs: mustprogress nounwind uwtable
define linkonce_odr hidden noundef ptr @_ZN6XValueI15XPerNUMAStorage5XListI5XPageEE4addrEj(ptr noundef nonnull align 8 dereferenceable(8) %0, i32 noundef %1) #1 comdat align 2 {
  %3 = alloca ptr, align 8
  %4 = alloca i32, align 4
  store ptr %0, ptr %3, align 8
  store i32 %1, ptr %4, align 4
  %5 = load ptr, ptr %3, align 8
  %6 = load i32, ptr %4, align 4
  %7 = call noundef i64 @_ZNK6XValueI15XPerNUMAStorage5XListI5XPageEE10value_addrEj(ptr noundef nonnull align 8 dereferenceable(8) %5, i32 noundef %6)
  %8 = inttoptr i64 %7 to ptr
  ret ptr %8
}

; Function Attrs: mustprogress nounwind uwtable
define linkonce_odr hidden noundef i32 @_ZN15XPerNUMAStorage5countEv() #1 comdat align 2 {
  %1 = call noundef i32 @_ZN5XNUMA5countEv()
  ret i32 %1
}

; Function Attrs: mustprogress nounwind uwtable
define linkonce_odr hidden noundef i64 @_Z8align_upImmTnNSt9enable_ifIXcvbsr3std11is_integralIT_EE5valueEiE4typeELi0EES1_S1_T0_(i64 noundef %0, i64 noundef %1) #1 comdat {
  %3 = alloca i64, align 8
  %4 = alloca i64, align 8
  %5 = alloca i64, align 8
  store i64 %0, ptr %3, align 8
  store i64 %1, ptr %4, align 8
  %6 = load i64, ptr %3, align 8
  %7 = load i64, ptr %4, align 8
  %8 = call noundef i64 @_ZL14alignment_maskImTnNSt9enable_ifIXcvbsr3std11is_integralIT_EE5valueEiE4typeELi0EES1_S1_(i64 noundef %7)
  %9 = add i64 %6, %8
  %10 = call noundef i64 @_Z12checked_castImmET_T0_(i64 noundef %9)
  store i64 %10, ptr %5, align 8
  %11 = load i64, ptr %5, align 8
  %12 = load i64, ptr %4, align 8
  %13 = call noundef i64 @_Z10align_downImmTnNSt9enable_ifIXcvbsr3std11is_integralIT_EE5valueEiE4typeELi0EES1_S1_T0_(i64 noundef %11, i64 noundef %12)
  ret i64 %13
}

; Function Attrs: mustprogress nounwind uwtable
define linkonce_odr hidden noundef i64 @_ZN15XPerNUMAStorage9alignmentEv() #1 comdat align 2 {
  ret i64 8
}

; Function Attrs: mustprogress nounwind uwtable
define linkonce_odr hidden void @_ZNK5XListI5XPageE11verify_headEv(ptr noundef nonnull align 8 dereferenceable(24) %0) #1 comdat align 2 {
  %2 = alloca ptr, align 8
  store ptr %0, ptr %2, align 8
  %3 = load ptr, ptr %2, align 8
  %4 = getelementptr inbounds %class.XList, ptr %3, i32 0, i32 0
  call void @_ZNK9XListNodeI5XPageE12verify_linksEv(ptr noundef nonnull align 8 dereferenceable(16) %4)
  ret void
}

; Function Attrs: mustprogress nounwind uwtable
define linkonce_odr hidden void @_ZN9XListNodeI5XPageEC2Ev(ptr noundef nonnull align 8 dereferenceable(16) %0) unnamed_addr #1 comdat align 2 {
  %2 = alloca ptr, align 8
  store ptr %0, ptr %2, align 8
  %3 = load ptr, ptr %2, align 8
  %4 = getelementptr inbounds %class.XListNode, ptr %3, i32 0, i32 0
  store ptr %3, ptr %4, align 8
  %5 = getelementptr inbounds %class.XListNode, ptr %3, i32 0, i32 1
  store ptr %3, ptr %5, align 8
  ret void
}

; Function Attrs: mustprogress nounwind uwtable
define linkonce_odr hidden noundef zeroext i1 @_ZN14XValueIteratorI15XPerNUMAStorage5XListI5XPageEE4nextEPPS3_(ptr noundef nonnull align 8 dereferenceable(12) %0, ptr noundef %1) #1 comdat align 2 {
  %3 = alloca i1, align 1
  %4 = alloca ptr, align 8
  %5 = alloca ptr, align 8
  store ptr %0, ptr %4, align 8
  store ptr %1, ptr %5, align 8
  %6 = load ptr, ptr %4, align 8
  %7 = getelementptr inbounds %class.XValueIterator, ptr %6, i32 0, i32 1
  %8 = load i32, ptr %7, align 8
  %9 = call noundef i32 @_ZN15XPerNUMAStorage5countEv()
  %10 = icmp ult i32 %8, %9
  br i1 %10, label %11, label %19

11:                                               ; preds = %2
  %12 = getelementptr inbounds %class.XValueIterator, ptr %6, i32 0, i32 0
  %13 = load ptr, ptr %12, align 8
  %14 = getelementptr inbounds %class.XValueIterator, ptr %6, i32 0, i32 1
  %15 = load i32, ptr %14, align 8
  %16 = add i32 %15, 1
  store i32 %16, ptr %14, align 8
  %17 = call noundef ptr @_ZN6XValueI15XPerNUMAStorage5XListI5XPageEE4addrEj(ptr noundef nonnull align 8 dereferenceable(8) %13, i32 noundef %15)
  %18 = load ptr, ptr %5, align 8
  store ptr %17, ptr %18, align 8
  store i1 true, ptr %3, align 1
  br label %20

19:                                               ; preds = %2
  store i1 false, ptr %3, align 1
  br label %20

20:                                               ; preds = %19, %11
  %21 = load i1, ptr %3, align 1
  ret i1 %21
}

; Function Attrs: mustprogress nounwind uwtable
define linkonce_odr hidden void @_ZN14XValueIteratorI15XPerNUMAStorage5XListI5XPageEEC2EP6XValueIS0_S3_E(ptr noundef nonnull align 8 dereferenceable(12) %0, ptr noundef %1) unnamed_addr #1 comdat align 2 {
  %3 = alloca ptr, align 8
  %4 = alloca ptr, align 8
  store ptr %0, ptr %3, align 8
  store ptr %1, ptr %4, align 8
  %5 = load ptr, ptr %3, align 8
  %6 = getelementptr inbounds %class.XValueIterator, ptr %5, i32 0, i32 0
  %7 = load ptr, ptr %4, align 8
  store ptr %7, ptr %6, align 8
  %8 = getelementptr inbounds %class.XValueIterator, ptr %5, i32 0, i32 1
  store i32 0, ptr %8, align 8
  ret void
}

; Function Attrs: mustprogress nounwind uwtable
define linkonce_odr hidden noundef i64 @_ZN13XValueStorageI15XPerNUMAStorageE5allocEm(i64 noundef %0) #1 comdat align 2 {
  %2 = alloca i64, align 8
  %3 = alloca i64, align 8
  %4 = alloca i64, align 8
  %5 = alloca i64, align 8
  %6 = alloca i64, align 8
  store i64 %0, ptr %3, align 8
  %7 = load i64, ptr @_ZN13XValueStorageI15XPerNUMAStorageE4_topE, align 8
  %8 = call noundef i64 @_ZN15XPerNUMAStorage9alignmentEv()
  %9 = call noundef i64 @_Z8align_upImmTnNSt9enable_ifIXcvbsr3std11is_integralIT_EE5valueEiE4typeELi0EES1_S1_T0_(i64 noundef %7, i64 noundef %8)
  store i64 %9, ptr %4, align 8
  %10 = load i64, ptr %4, align 8
  %11 = load i64, ptr %3, align 8
  %12 = add i64 %10, %11
  store i64 %12, ptr @_ZN13XValueStorageI15XPerNUMAStorageE4_topE, align 8
  %13 = load i64, ptr @_ZN13XValueStorageI15XPerNUMAStorageE4_topE, align 8
  %14 = load i64, ptr @_ZN13XValueStorageI15XPerNUMAStorageE4_endE, align 8
  %15 = icmp ult i64 %13, %14
  br i1 %15, label %16, label %18

16:                                               ; preds = %1
  %17 = load i64, ptr %4, align 8
  store i64 %17, ptr %2, align 8
  br label %28

18:                                               ; preds = %1
  store i64 4096, ptr %5, align 8
  %19 = call noundef i32 @_ZN15XPerNUMAStorage5countEv()
  %20 = zext i32 %19 to i64
  %21 = mul i64 4096, %20
  store i64 %21, ptr %6, align 8
  %22 = load i64, ptr %6, align 8
  %23 = call noundef i64 @_ZN6XUtils13alloc_alignedEmm(i64 noundef 4096, i64 noundef %22)
  store i64 %23, ptr @_ZN13XValueStorageI15XPerNUMAStorageE4_topE, align 8
  %24 = load i64, ptr @_ZN13XValueStorageI15XPerNUMAStorageE4_topE, align 8
  %25 = add i64 %24, 4096
  store i64 %25, ptr @_ZN13XValueStorageI15XPerNUMAStorageE4_endE, align 8
  %26 = load i64, ptr %3, align 8
  %27 = call noundef i64 @_ZN13XValueStorageI15XPerNUMAStorageE5allocEm(i64 noundef %26)
  store i64 %27, ptr %2, align 8
  br label %28

28:                                               ; preds = %18, %16
  %29 = load i64, ptr %2, align 8
  ret i64 %29
}

; Function Attrs: mustprogress nounwind uwtable
define linkonce_odr hidden void @_ZN5XListI5XPageEC2Ev(ptr noundef nonnull align 8 dereferenceable(24) %0) unnamed_addr #1 comdat align 2 {
  %2 = alloca ptr, align 8
  store ptr %0, ptr %2, align 8
  %3 = load ptr, ptr %2, align 8
  %4 = getelementptr inbounds %class.XList, ptr %3, i32 0, i32 0
  call void @_ZN9XListNodeI5XPageEC2Ev(ptr noundef nonnull align 8 dereferenceable(16) %4)
  %5 = getelementptr inbounds %class.XList, ptr %3, i32 0, i32 1
  store i64 0, ptr %5, align 8
  call void @_ZNK5XListI5XPageE11verify_headEv(ptr noundef nonnull align 8 dereferenceable(24) %3)
  ret void
}

; Function Attrs: mustprogress nounwind uwtable
define linkonce_odr hidden void @_ZN6XValueI15XPerNUMAStorage5XListI5XPageEEC2Ev(ptr noundef nonnull align 8 dereferenceable(8) %0) unnamed_addr #1 comdat align 2 {
  %2 = alloca ptr, align 8
  %3 = alloca %class.XValueIterator, align 8
  %4 = alloca ptr, align 8
  store ptr %0, ptr %2, align 8
  %5 = load ptr, ptr %2, align 8
  %6 = getelementptr inbounds %class.XValue, ptr %5, i32 0, i32 0
  %7 = call noundef i64 @_ZN13XValueStorageI15XPerNUMAStorageE5allocEm(i64 noundef 24)
  store i64 %7, ptr %6, align 8
  call void @_ZN14XValueIteratorI15XPerNUMAStorage5XListI5XPageEEC2EP6XValueIS0_S3_E(ptr noundef nonnull align 8 dereferenceable(12) %3, ptr noundef %5)
  br label %8

8:                                                ; preds = %10, %1
  %9 = call noundef zeroext i1 @_ZN14XValueIteratorI15XPerNUMAStorage5XListI5XPageEE4nextEPPS3_(ptr noundef nonnull align 8 dereferenceable(12) %3, ptr noundef %4)
  br i1 %9, label %10, label %12

10:                                               ; preds = %8
  %11 = load ptr, ptr %4, align 8
  call void @_ZN5XListI5XPageEC2Ev(ptr noundef nonnull align 8 dereferenceable(24) %11)
  br label %8, !llvm.loop !6

12:                                               ; preds = %8
  ret void
}

; Function Attrs: mustprogress nounwind uwtable
define hidden void @_ZN10XPageCacheC2Ev(ptr noundef nonnull align 8 dereferenceable(64) %0) unnamed_addr #1 align 2 {
  %2 = alloca ptr, align 8
  store ptr %0, ptr %2, align 8
  %3 = load ptr, ptr %2, align 8
  %4 = getelementptr inbounds %class.XPageCache, ptr %3, i32 0, i32 0
  call void @_ZN6XValueI15XPerNUMAStorage5XListI5XPageEEC2Ev(ptr noundef nonnull align 8 dereferenceable(8) %4)
  %5 = getelementptr inbounds %class.XPageCache, ptr %3, i32 0, i32 1
  call void @_ZN5XListI5XPageEC2Ev(ptr noundef nonnull align 8 dereferenceable(24) %5)
  %6 = getelementptr inbounds %class.XPageCache, ptr %3, i32 0, i32 2
  call void @_ZN5XListI5XPageEC2Ev(ptr noundef nonnull align 8 dereferenceable(24) %6)
  %7 = getelementptr inbounds %class.XPageCache, ptr %3, i32 0, i32 3
  store i64 0, ptr %7, align 8
  ret void
}