; Function Attrs: mustprogress nounwind uwtable
define hidden void @_ZN10XPageCacheC2Ev(ptr noundef nonnull align 8 dereferenceable(64) %0) unnamed_addr #2 align 2 {
  %2 = load i64, ptr @_ZN13XValueStorageI15XPerNUMAStorageE4_topE, align 8
  %3 = add i64 %2, 7
  %4 = and i64 %3, -8
  %5 = add i64 %4, 24
  store i64 %5, ptr @_ZN13XValueStorageI15XPerNUMAStorageE4_topE, align 8
  %6 = load i64, ptr @_ZN13XValueStorageI15XPerNUMAStorageE4_endE, align 8
  %7 = icmp ult i64 %5, %6
  br i1 %7, label %_ZN13XValueStorageI15XPerNUMAStorageE5allocEm.exit.i, label %tailrecurse.i.i

tailrecurse.i.i:                                  ; preds = %1, %tailrecurse.i.i
  %8 = tail call noundef i32 @_ZN5XNUMA5countEv() #9
  %9 = zext i32 %8 to i64
  %10 = shl nuw nsw i64 %9, 12
  %11 = tail call noundef i64 @_ZN6XUtils13alloc_alignedEmm(i64 noundef 4096, i64 noundef %10) #9
  %12 = add i64 %11, 4096
  store i64 %12, ptr @_ZN13XValueStorageI15XPerNUMAStorageE4_endE, align 8
  %13 = add i64 %11, 7
  %14 = and i64 %13, -8
  %15 = add i64 %14, 24
  store i64 %15, ptr @_ZN13XValueStorageI15XPerNUMAStorageE4_topE, align 8
  %16 = icmp ult i64 %15, %12
  br i1 %16, label %_ZN13XValueStorageI15XPerNUMAStorageE5allocEm.exit.i, label %tailrecurse.i.i

_ZN13XValueStorageI15XPerNUMAStorageE5allocEm.exit.i: ; preds = %tailrecurse.i.i, %1
  %.lcssa.i.i = phi i64 [ %4, %1 ], [ %14, %tailrecurse.i.i ]
  store i64 %.lcssa.i.i, ptr %0, align 8
  %17 = tail call noundef i32 @_ZN5XNUMA5countEv() #9
  %.not.i = icmp eq i32 %17, 0
  br i1 %.not.i, label %_ZN6XValueI15XPerNUMAStorage5XListI5XPageEEC2Ev.exit, label %.lr.ph.i

.lr.ph.i:                                         ; preds = %_ZN13XValueStorageI15XPerNUMAStorageE5allocEm.exit.i, %.lr.ph.i
  %indvars.iv.i = phi i64 [ %indvars.iv.next.i, %.lr.ph.i ], [ 0, %_ZN13XValueStorageI15XPerNUMAStorageE5allocEm.exit.i ]
  %indvars.iv.next.i = add nuw nsw i64 %indvars.iv.i, 1
  %18 = load i64, ptr %0, align 8
  %19 = shl nuw nsw i64 %indvars.iv.i, 12
  %20 = add i64 %18, %19
  %21 = inttoptr i64 %20 to ptr
  store ptr %21, ptr %21, align 8
  %22 = getelementptr inbounds i8, ptr %21, i64 8
  store ptr %21, ptr %22, align 8
  %23 = getelementptr inbounds i8, ptr %21, i64 16
  store i64 0, ptr %23, align 8
  %24 = tail call noundef i32 @_ZN5XNUMA5countEv() #9
  %25 = zext i32 %24 to i64
  %26 = icmp ult i64 %indvars.iv.next.i, %25
  br i1 %26, label %.lr.ph.i, label %_ZN6XValueI15XPerNUMAStorage5XListI5XPageEEC2Ev.exit, !llvm.loop !6

_ZN6XValueI15XPerNUMAStorage5XListI5XPageEEC2Ev.exit: ; preds = %.lr.ph.i, %_ZN13XValueStorageI15XPerNUMAStorageE5allocEm.exit.i
  %27 = getelementptr inbounds i8, ptr %0, i64 8
  store ptr %27, ptr %27, align 8
  %28 = getelementptr inbounds i8, ptr %0, i64 16
  store ptr %27, ptr %28, align 8
  %29 = getelementptr inbounds i8, ptr %0, i64 24
  store i64 0, ptr %29, align 8
  %30 = getelementptr inbounds i8, ptr %0, i64 32
  store ptr %30, ptr %30, align 8
  %31 = getelementptr inbounds i8, ptr %0, i64 40
  store ptr %30, ptr %31, align 8
  %32 = getelementptr inbounds i8, ptr %0, i64 48
  tail call void @llvm.memset.p0.i64(ptr noundef nonnull align 8 dereferenceable(16) %32, i8 0, i64 16, i1 false)
  ret void
}